; Function Attrs: nounwind uwtable
define dso_local ptr @manifest_files_create(i32 noundef %0, ptr noundef %1) local_unnamed_addr #0 {
  %3 = tail call ptr @pg_malloc0(i64 noundef 40) #22
  %4 = getelementptr inbounds nuw i8, ptr %3, i64 32
  store ptr %1, ptr %4, align 8
  %5 = uitofp i32 %0 to double
  %6 = fdiv double %5, 9.000000e-01
  %7 = fcmp ogt double %6, 0x41F0000000000000
  %8 = select i1 %7, double 0x41F0000000000000, double %6
  %9 = fptoui double %8 to i64
  %10 = tail call i64 @llvm.umax.i64(i64 %9, i64 2)
  %11 = tail call range(i64 1, 65) i64 @llvm.ctpop.i64(i64 %10)
  %12 = icmp samesign ult i64 %11, 2
  %13 = tail call range(i64 0, 65) i64 @llvm.ctlz.i64(i64 %10, i1 true)
  %14 = sub nuw nsw i64 64, %13
  %15 = shl nuw i64 1, %14
  %.0.i.i = select i1 %12, i64 %10, i64 %15
  %16 = mul i64 %.0.i.i, 40
  %17 = icmp ugt i64 %16, 9223372036854775806
  br i1 %17, label %18, label %manifest_files_compute_size.exit, !prof !4

18:                                               ; preds = %2
  tail call void (i32, i32, ptr, ...) @pg_log_generic(i32 noundef 4, i32 noundef 0, ptr noundef nonnull @.str.8) #22
  tail call void @exit(i32 noundef 1) #23
  unreachable

manifest_files_compute_size.exit:                 ; preds = %2
  %19 = tail call ptr @pg_malloc0(i64 noundef %16) #22
  %20 = getelementptr inbounds nuw i8, ptr %3, i64 24
  store ptr %19, ptr %20, align 8
  %21 = tail call range(i64 1, 65) i64 @llvm.ctpop.i64(i64 %.0.i.i)
  %22 = icmp samesign ult i64 %21, 2
  %23 = tail call range(i64 0, 65) i64 @llvm.ctlz.i64(i64 %.0.i.i, i1 true)
  %24 = sub nuw nsw i64 64, %23
  %25 = shl nuw i64 1, %24
  %.0.i.i.i = select i1 %22, i64 %.0.i.i, i64 %25
  %26 = mul i64 %.0.i.i.i, 40
  %27 = icmp ugt i64 %26, 9223372036854775806
  br i1 %27, label %28, label %manifest_files_update_parameters.exit, !prof !4

28:                                               ; preds = %manifest_files_compute_size.exit
  tail call void (i32, i32, ptr, ...) @pg_log_generic(i32 noundef 4, i32 noundef 0, ptr noundef nonnull @.str.8) #22
  tail call void @exit(i32 noundef 1) #23
  unreachable

manifest_files_update_parameters.exit:            ; preds = %manifest_files_compute_size.exit
  store i64 %.0.i.i.i, ptr %3, align 8
  %29 = trunc i64 %.0.i.i.i to i32
  %30 = add i32 %29, -1
  %31 = getelementptr inbounds nuw i8, ptr %3, i64 12
  store i32 %30, ptr %31, align 4
  %32 = icmp eq i64 %.0.i.i.i, 4294967296
  %33 = uitofp i64 %.0.i.i.i to double
  %34 = fmul double %33, 9.000000e-01
  %35 = fptoui double %34 to i32
  %.sink.i = select i1 %32, i32 -85899346, i32 %35
  %36 = getelementptr inbounds nuw i8, ptr %3, i64 16
  store i32 %.sink.i, ptr %36, align 8
  ret ptr %3
}